; Function Attrs: mustprogress nofree norecurse nosync nounwind memory(readwrite, inaccessiblemem: none) uwtable
define void @_ZN10OpenSubdiv6v3_6_03Vtr8internal10Refinement24markSparseVertexChildrenEv(ptr nocapture noundef nonnull readonly align 8 dereferenceable(504) %0) local_unnamed_addr #10 align 2 {
  %2 = getelementptr inbounds nuw i8, ptr %0, i64 8
  %3 = load ptr, ptr %2, align 8
  %4 = getelementptr inbounds nuw i8, ptr %3, i64 8
  %5 = load i32, ptr %4, align 8
  %6 = icmp sgt i32 %5, 0
  br i1 %6, label %.lr.ph, label %._crit_edge

.lr.ph:                                           ; preds = %1
  %7 = getelementptr inbounds nuw i8, ptr %0, i64 456
  %8 = getelementptr inbounds nuw i8, ptr %0, i64 240
  br label %9

9:                                                ; preds = %.lr.ph, %18
  %10 = phi ptr [ %3, %.lr.ph ], [ %19, %18 ]
  %indvars.iv = phi i64 [ 0, %.lr.ph ], [ %indvars.iv.next, %18 ]
  %11 = load ptr, ptr %7, align 8
  %12 = getelementptr inbounds %"struct.OpenSubdiv::v3_6_0::Vtr::internal::Refinement::SparseTag", ptr %11, i64 %indvars.iv
  %13 = load i8, ptr %12, align 1
  %14 = and i8 %13, 1
  %.not = icmp eq i8 %14, 0
  br i1 %.not, label %18, label %15

15:                                               ; preds = %9
  %16 = load ptr, ptr %8, align 8
  %17 = getelementptr inbounds i32, ptr %16, i64 %indvars.iv
  store i32 2, ptr %17, align 4
  %.pre = load ptr, ptr %2, align 8
  br label %18

18:                                               ; preds = %9, %15
  %19 = phi ptr [ %10, %9 ], [ %.pre, %15 ]
  %indvars.iv.next = add nuw nsw i64 %indvars.iv, 1
  %20 = getelementptr inbounds nuw i8, ptr %19, i64 8
  %21 = load i32, ptr %20, align 8
  %22 = sext i32 %21 to i64
  %23 = icmp slt i64 %indvars.iv.next, %22
  br i1 %23, label %9, label %._crit_edge, !llvm.loop !14

._crit_edge:                                      ; preds = %18, %1
  ret void
}